target datalayout = "e-m:e-p270:32:32-p271:32:32-p272:64:64-i64:64-i128:128-f80:128-n8:16:32:64-S128"
target triple = "x86_64-pc-linux-gnu"

%struct.Vec_Int_t_ = type { i32, i32, ptr }
%struct.Psr_Ntk_t_ = type { i32, i8, ptr, %struct.Vec_Int_t_, %struct.Vec_Int_t_, %struct.Vec_Int_t_, %struct.Vec_Int_t_, %struct.Vec_Int_t_, %struct.Vec_Int_t_, %struct.Vec_Int_t_, %struct.Vec_Int_t_, %struct.Vec_Int_t_, %struct.Vec_Int_t_, %struct.Vec_Int_t_, %struct.Vec_Int_t_, %struct.Vec_Int_t_ }

@Psr_BoxSignals.V = internal global %struct.Vec_Int_t_ zeroinitializer, align 8

; Function Attrs: inlinehint nounwind uwtable
define internal ptr @Vec_IntEntryP(ptr noundef %0, i32 noundef %1) #3 {
  %3 = alloca ptr, align 8
  %4 = alloca i32, align 4
  store ptr %0, ptr %3, align 8, !tbaa !12
  store i32 %1, ptr %4, align 4, !tbaa !10
  %5 = load ptr, ptr %3, align 8, !tbaa !12
  %6 = getelementptr inbounds nuw %struct.Vec_Int_t_, ptr %5, i32 0, i32 2
  %7 = load ptr, ptr %6, align 8, !tbaa !20
  %8 = load i32, ptr %4, align 4, !tbaa !10
  %9 = sext i32 %8 to i64
  %10 = getelementptr inbounds i32, ptr %7, i64 %9
  ret ptr %10
}

; Function Attrs: inlinehint nounwind uwtable
define internal i32 @Psr_BoxHand(ptr noundef %0, i32 noundef %1) #3 {
  %3 = alloca ptr, align 8
  %4 = alloca i32, align 4
  store ptr %0, ptr %3, align 8, !tbaa !3
  store i32 %1, ptr %4, align 4, !tbaa !10
  %5 = load ptr, ptr %3, align 8, !tbaa !3
  %6 = getelementptr inbounds nuw %struct.Psr_Ntk_t_, ptr %5, i32 0, i32 15
  %7 = load i32, ptr %4, align 4, !tbaa !10
  %8 = call i32 @Vec_IntEntry(ptr noundef %6, i32 noundef %7)
  ret i32 %8
}

; Function Attrs: inlinehint nounwind uwtable
define internal i32 @Abc_Lit2Var2(i32 noundef %0) #3 {
  %2 = alloca i32, align 4
  store i32 %0, ptr %2, align 4, !tbaa !10
  %3 = load i32, ptr %2, align 4, !tbaa !10
  %4 = ashr i32 %3, 2
  ret i32 %4
}

; Function Attrs: inlinehint nounwind uwtable
define internal ptr @Psr_BoxArray(ptr noundef %0, i32 noundef %1) #3 {
  %3 = alloca ptr, align 8
  %4 = alloca i32, align 4
  store ptr %0, ptr %3, align 8, !tbaa !3
  store i32 %1, ptr %4, align 4, !tbaa !10
  %5 = load ptr, ptr %3, align 8, !tbaa !3
  %6 = getelementptr inbounds nuw %struct.Psr_Ntk_t_, ptr %5, i32 0, i32 14
  %7 = load ptr, ptr %3, align 8, !tbaa !3
  %8 = load i32, ptr %4, align 4, !tbaa !10
  %9 = call i32 @Psr_BoxHand(ptr noundef %7, i32 noundef %8)
  %10 = add nsw i32 %9, 3
  %11 = call ptr @Vec_IntEntryP(ptr noundef %6, i32 noundef %10)
  ret ptr %11
}

; Function Attrs: inlinehint nounwind uwtable
define internal i32 @Psr_BoxSize(ptr noundef %0, i32 noundef %1) #3 {
  %3 = alloca ptr, align 8
  %4 = alloca i32, align 4
  store ptr %0, ptr %3, align 8, !tbaa !3
  store i32 %1, ptr %4, align 4, !tbaa !10
  %5 = load ptr, ptr %3, align 8, !tbaa !3
  %6 = getelementptr inbounds nuw %struct.Psr_Ntk_t_, ptr %5, i32 0, i32 14
  %7 = load ptr, ptr %3, align 8, !tbaa !3
  %8 = load i32, ptr %4, align 4, !tbaa !10
  %9 = call i32 @Psr_BoxHand(ptr noundef %7, i32 noundef %8)
  %10 = call i32 @Vec_IntEntry(ptr noundef %6, i32 noundef %9)
  %11 = sub nsw i32 %10, 2
  ret i32 %11
}

; Function Attrs: inlinehint nounwind uwtable
define internal i32 @Psr_NtkPoNum(ptr noundef %0) #3 {
  %2 = alloca ptr, align 8
  store ptr %0, ptr %2, align 8, !tbaa !3
  %3 = load ptr, ptr %2, align 8, !tbaa !3
  %4 = getelementptr inbounds nuw %struct.Psr_Ntk_t_, ptr %3, i32 0, i32 6
  %5 = call i32 @Vec_IntSize(ptr noundef %4)
  ret i32 %5
}

; Function Attrs: inlinehint nounwind uwtable
define internal i32 @Psr_NtkSigName(ptr noundef %0, i32 noundef %1) #3 {
  %3 = alloca i32, align 4
  %4 = alloca ptr, align 8
  %5 = alloca i32, align 4
  store ptr %0, ptr %4, align 8, !tbaa !3
  store i32 %1, ptr %5, align 4, !tbaa !10
  %6 = load ptr, ptr %4, align 8, !tbaa !3
  %7 = getelementptr inbounds nuw %struct.Psr_Ntk_t_, ptr %6, i32 0, i32 1
  %8 = load i8, ptr %7, align 4
  %9 = lshr i8 %8, 1
  %10 = and i8 %9, 1
  %11 = zext i8 %10 to i32
  %12 = icmp ne i32 %11, 0
  br i1 %12, label %15, label %13

13:                                               ; preds = %2
  %14 = load i32, ptr %5, align 4, !tbaa !10
  store i32 %14, ptr %3, align 4
  br label %18

15:                                               ; preds = %2
  %16 = load i32, ptr %5, align 4, !tbaa !10
  %17 = call i32 @Abc_Lit2Var2(i32 noundef %16)
  store i32 %17, ptr %3, align 4
  br label %18

18:                                               ; preds = %15, %13
  %19 = load i32, ptr %3, align 4
  ret i32 %19
}

; Function Attrs: inlinehint nounwind uwtable
define internal i32 @Vec_IntSize(ptr noundef %0) #3 {
  %2 = alloca ptr, align 8
  store ptr %0, ptr %2, align 8, !tbaa !12
  %3 = load ptr, ptr %2, align 8, !tbaa !12
  %4 = getelementptr inbounds nuw %struct.Vec_Int_t_, ptr %3, i32 0, i32 1
  %5 = load i32, ptr %4, align 4, !tbaa !19
  ret i32 %5
}

; Function Attrs: inlinehint nounwind uwtable
define internal ptr @Psr_BoxSignals(ptr noundef %0, i32 noundef %1) #3 {
  %3 = alloca ptr, align 8
  %4 = alloca i32, align 4
  store ptr %0, ptr %3, align 8, !tbaa !3
  store i32 %1, ptr %4, align 4, !tbaa !10
  %5 = load ptr, ptr %3, align 8, !tbaa !3
  %6 = load i32, ptr %4, align 4, !tbaa !10
  %7 = call i32 @Psr_BoxSize(ptr noundef %5, i32 noundef %6)
  store i32 %7, ptr @Psr_BoxSignals.V, align 8, !tbaa !16
  store i32 %7, ptr getelementptr inbounds nuw (%struct.Vec_Int_t_, ptr @Psr_BoxSignals.V, i32 0, i32 1), align 4, !tbaa !19
  %8 = load ptr, ptr %3, align 8, !tbaa !3
  %9 = load i32, ptr %4, align 4, !tbaa !10
  %10 = call ptr @Psr_BoxArray(ptr noundef %8, i32 noundef %9)
  store ptr %10, ptr getelementptr inbounds nuw (%struct.Vec_Int_t_, ptr @Psr_BoxSignals.V, i32 0, i32 2), align 8, !tbaa !20
  ret ptr @Psr_BoxSignals.V
}

; Function Attrs: inlinehint nounwind uwtable
define internal i32 @Psr_NtkBoxNum(ptr noundef %0) #3 {
  %2 = alloca ptr, align 8
  store ptr %0, ptr %2, align 8, !tbaa !3
  %3 = load ptr, ptr %2, align 8, !tbaa !3
  %4 = getelementptr inbounds nuw %struct.Psr_Ntk_t_, ptr %3, i32 0, i32 15
  %5 = call i32 @Vec_IntSize(ptr noundef %4)
  ret i32 %5
}

; Function Attrs: inlinehint nounwind uwtable
define internal void @Vec_IntWriteEntry(ptr noundef %0, i32 noundef %1, i32 noundef %2) #3 {
  %4 = alloca ptr, align 8
  %5 = alloca i32, align 4
  %6 = alloca i32, align 4
  store ptr %0, ptr %4, align 8, !tbaa !12
  store i32 %1, ptr %5, align 4, !tbaa !10
  store i32 %2, ptr %6, align 4, !tbaa !10
  %7 = load i32, ptr %6, align 4, !tbaa !10
  %8 = load ptr, ptr %4, align 8, !tbaa !12
  %9 = getelementptr inbounds nuw %struct.Vec_Int_t_, ptr %8, i32 0, i32 2
  %10 = load ptr, ptr %9, align 8, !tbaa !20
  %11 = load i32, ptr %5, align 4, !tbaa !10
  %12 = sext i32 %11 to i64
  %13 = getelementptr inbounds i32, ptr %10, i64 %12
  store i32 %7, ptr %13, align 4, !tbaa !10
  ret void
}

; Function Attrs: inlinehint nounwind uwtable
define internal i32 @Vec_IntEntry(ptr noundef %0, i32 noundef %1) #3 {
  %3 = alloca ptr, align 8
  %4 = alloca i32, align 4
  store ptr %0, ptr %3, align 8, !tbaa !12
  store i32 %1, ptr %4, align 4, !tbaa !10
  %5 = load ptr, ptr %3, align 8, !tbaa !12
  %6 = getelementptr inbounds nuw %struct.Vec_Int_t_, ptr %5, i32 0, i32 2
  %7 = load ptr, ptr %6, align 8, !tbaa !20
  %8 = load i32, ptr %4, align 4, !tbaa !10
  %9 = sext i32 %8 to i64
  %10 = getelementptr inbounds i32, ptr %7, i64 %9
  %11 = load i32, ptr %10, align 4, !tbaa !10
  ret i32 %11
}

; Function Attrs: inlinehint nounwind uwtable
define internal i32 @Psr_NtkPiNum(ptr noundef %0) #3 {
  %2 = alloca ptr, align 8
  store ptr %0, ptr %2, align 8, !tbaa !3
  %3 = load ptr, ptr %2, align 8, !tbaa !3
  %4 = getelementptr inbounds nuw %struct.Psr_Ntk_t_, ptr %3, i32 0, i32 5
  %5 = call i32 @Vec_IntSize(ptr noundef %4)
  ret i32 %5
}

; Function Attrs: nounwind uwtable
define void @Psr_ManCleanMap(ptr noundef %0, ptr noundef %1) #0 {
  %3 = alloca ptr, align 8
  %4 = alloca ptr, align 8
  %5 = alloca ptr, align 8
  %6 = alloca i32, align 4
  %7 = alloca i32, align 4
  %8 = alloca i32, align 4
  %9 = alloca i32, align 4
  store ptr %0, ptr %3, align 8, !tbaa !3
  store ptr %1, ptr %4, align 8, !tbaa !12
  call void @llvm.lifetime.start.p0(i64 8, ptr %5) #10
  call void @llvm.lifetime.start.p0(i64 4, ptr %6) #10
  call void @llvm.lifetime.start.p0(i64 4, ptr %7) #10
  call void @llvm.lifetime.start.p0(i64 4, ptr %8) #10
  call void @llvm.lifetime.start.p0(i64 4, ptr %9) #10
  store i32 0, ptr %6, align 4, !tbaa !10
  br label %10

10:                                               ; preds = %26, %2
  %11 = load i32, ptr %6, align 4, !tbaa !10
  %12 = load ptr, ptr %3, align 8, !tbaa !3
  %13 = call i32 @Psr_NtkPiNum(ptr noundef %12)
  %14 = icmp slt i32 %11, %13
  br i1 %14, label %15, label %21

15:                                               ; preds = %10
  %16 = load ptr, ptr %3, align 8, !tbaa !3
  %17 = getelementptr inbounds nuw %struct.Psr_Ntk_t_, ptr %16, i32 0, i32 5
  %18 = load i32, ptr %6, align 4, !tbaa !10
  %19 = call i32 @Vec_IntEntry(ptr noundef %17, i32 noundef %18)
  store i32 %19, ptr %8, align 4, !tbaa !10
  %20 = icmp ne i32 %19, 0
  br label %21

21:                                               ; preds = %15, %10
  %22 = phi i1 [ false, %10 ], [ %20, %15 ]
  br i1 %22, label %23, label %29

23:                                               ; preds = %21
  %24 = load ptr, ptr %4, align 8, !tbaa !12
  %25 = load i32, ptr %8, align 4, !tbaa !10
  call void @Vec_IntWriteEntry(ptr noundef %24, i32 noundef %25, i32 noundef -1)
  br label %26

26:                                               ; preds = %23
  %27 = load i32, ptr %6, align 4, !tbaa !10
  %28 = add nsw i32 %27, 1
  store i32 %28, ptr %6, align 4, !tbaa !10
  br label %10, !llvm.loop !43

29:                                               ; preds = %21
  store i32 0, ptr %6, align 4, !tbaa !10
  br label %30

30:                                               ; preds = %69, %29
  %31 = load i32, ptr %6, align 4, !tbaa !10
  %32 = load ptr, ptr %3, align 8, !tbaa !3
  %33 = call i32 @Psr_NtkBoxNum(ptr noundef %32)
  %34 = icmp slt i32 %31, %33
  br i1 %34, label %35, label %40

35:                                               ; preds = %30
  %36 = load ptr, ptr %3, align 8, !tbaa !3
  %37 = load i32, ptr %6, align 4, !tbaa !10
  %38 = call ptr @Psr_BoxSignals(ptr noundef %36, i32 noundef %37)
  store ptr %38, ptr %5, align 8, !tbaa !12
  %39 = icmp ne ptr %38, null
  br label %40

40:                                               ; preds = %35, %30
  %41 = phi i1 [ false, %30 ], [ %39, %35 ]
  br i1 %41, label %42, label %72

42:                                               ; preds = %40
  store i32 0, ptr %7, align 4, !tbaa !10
  br label %43

43:                                               ; preds = %65, %42
  %44 = load i32, ptr %7, align 4, !tbaa !10
  %45 = add nsw i32 %44, 1
  %46 = load ptr, ptr %5, align 8, !tbaa !12
  %47 = call i32 @Vec_IntSize(ptr noundef %46)
  %48 = icmp slt i32 %45, %47
  br i1 %48, label %49, label %58

49:                                               ; preds = %43
  %50 = load ptr, ptr %5, align 8, !tbaa !12
  %51 = load i32, ptr %7, align 4, !tbaa !10
  %52 = call i32 @Vec_IntEntry(ptr noundef %50, i32 noundef %51)
  store i32 %52, ptr %8, align 4, !tbaa !10
  br i1 true, label %53, label %58

53:                                               ; preds = %49
  %54 = load ptr, ptr %5, align 8, !tbaa !12
  %55 = load i32, ptr %7, align 4, !tbaa !10
  %56 = add nsw i32 %55, 1
  %57 = call i32 @Vec_IntEntry(ptr noundef %54, i32 noundef %56)
  store i32 %57, ptr %9, align 4, !tbaa !10
  br label %58

58:                                               ; preds = %53, %49, %43
  %59 = phi i1 [ false, %49 ], [ false, %43 ], [ true, %53 ]
  br i1 %59, label %60, label %68

60:                                               ; preds = %58
  %61 = load ptr, ptr %4, align 8, !tbaa !12
  %62 = load ptr, ptr %3, align 8, !tbaa !3
  %63 = load i32, ptr %9, align 4, !tbaa !10
  %64 = call i32 @Psr_NtkSigName(ptr noundef %62, i32 noundef %63)
  call void @Vec_IntWriteEntry(ptr noundef %61, i32 noundef %64, i32 noundef -1)
  br label %65

65:                                               ; preds = %60
  %66 = load i32, ptr %7, align 4, !tbaa !10
  %67 = add nsw i32 %66, 2
  store i32 %67, ptr %7, align 4, !tbaa !10
  br label %43, !llvm.loop !44

68:                                               ; preds = %58
  br label %69

69:                                               ; preds = %68
  %70 = load i32, ptr %6, align 4, !tbaa !10
  %71 = add nsw i32 %70, 1
  store i32 %71, ptr %6, align 4, !tbaa !10
  br label %30, !llvm.loop !45

72:                                               ; preds = %40
  store i32 0, ptr %6, align 4, !tbaa !10
  br label %73

73:                                               ; preds = %89, %72
  %74 = load i32, ptr %6, align 4, !tbaa !10
  %75 = load ptr, ptr %3, align 8, !tbaa !3
  %76 = call i32 @Psr_NtkPoNum(ptr noundef %75)
  %77 = icmp slt i32 %74, %76
  br i1 %77, label %78, label %84

78:                                               ; preds = %73
  %79 = load ptr, ptr %3, align 8, !tbaa !3
  %80 = getelementptr inbounds nuw %struct.Psr_Ntk_t_, ptr %79, i32 0, i32 6
  %81 = load i32, ptr %6, align 4, !tbaa !10
  %82 = call i32 @Vec_IntEntry(ptr noundef %80, i32 noundef %81)
  store i32 %82, ptr %8, align 4, !tbaa !10
  %83 = icmp ne i32 %82, 0
  br label %84

84:                                               ; preds = %78, %73
  %85 = phi i1 [ false, %73 ], [ %83, %78 ]
  br i1 %85, label %86, label %92

86:                                               ; preds = %84
  %87 = load ptr, ptr %4, align 8, !tbaa !12
  %88 = load i32, ptr %8, align 4, !tbaa !10
  call void @Vec_IntWriteEntry(ptr noundef %87, i32 noundef %88, i32 noundef -1)
  br label %89

89:                                               ; preds = %86
  %90 = load i32, ptr %6, align 4, !tbaa !10
  %91 = add nsw i32 %90, 1
  store i32 %91, ptr %6, align 4, !tbaa !10
  br label %73, !llvm.loop !46

92:                                               ; preds = %84
  call void @llvm.lifetime.end.p0(i64 4, ptr %9) #10
  call void @llvm.lifetime.end.p0(i64 4, ptr %8) #10
  call void @llvm.lifetime.end.p0(i64 4, ptr %7) #10
  call void @llvm.lifetime.end.p0(i64 4, ptr %6) #10
  call void @llvm.lifetime.end.p0(i64 8, ptr %5) #10
  ret void
}