; Function Attrs: nofree norecurse nosync nounwind memory(readwrite, inaccessiblemem: none) uwtable
define void @Psr_ManCleanMap(ptr noundef readonly captures(none) %0, ptr noundef readonly captures(none) %1) local_unnamed_addr #4 {
  %3 = getelementptr i8, ptr %0, i64 52
  %.val4652 = load i32, ptr %3, align 4, !tbaa !3
  %4 = icmp sgt i32 %.val4652, 0
  br i1 %4, label %.lr.ph, label %.critedge

.lr.ph:                                           ; preds = %2
  %5 = getelementptr i8, ptr %0, i64 56
  %.val43 = load ptr, ptr %5, align 8, !tbaa !10
  %6 = getelementptr i8, ptr %1, i64 8
  br label %7

7:                                                ; preds = %.lr.ph, %10
  %indvars.iv = phi i64 [ 0, %.lr.ph ], [ %indvars.iv.next, %10 ]
  %8 = getelementptr inbounds nuw i32, ptr %.val43, i64 %indvars.iv
  %9 = load i32, ptr %8, align 4, !tbaa !11
  %.not = icmp eq i32 %9, 0
  br i1 %.not, label %.critedge, label %10

10:                                               ; preds = %7
  %.val50 = load ptr, ptr %6, align 8, !tbaa !10
  %11 = sext i32 %9 to i64
  %12 = getelementptr inbounds i32, ptr %.val50, i64 %11
  store i32 -1, ptr %12, align 4, !tbaa !11
  %indvars.iv.next = add nuw nsw i64 %indvars.iv, 1
  %.val46 = load i32, ptr %3, align 4, !tbaa !3
  %13 = sext i32 %.val46 to i64
  %14 = icmp slt i64 %indvars.iv.next, %13
  br i1 %14, label %7, label %.critedge, !llvm.loop !36

.critedge:                                        ; preds = %7, %10, %2
  %15 = getelementptr i8, ptr %0, i64 212
  %.val58 = load i32, ptr %15, align 4, !tbaa !3
  %16 = icmp sgt i32 %.val58, 0
  br i1 %16, label %.lr.ph60, label %.critedge2.preheader

.lr.ph60:                                         ; preds = %.critedge
  %17 = getelementptr i8, ptr %0, i64 200
  %18 = getelementptr i8, ptr %0, i64 216
  %19 = getelementptr i8, ptr %0, i64 4
  %20 = getelementptr i8, ptr %1, i64 8
  br label %25

.critedge2.preheader:                             ; preds = %.critedge4, %.critedge
  %21 = getelementptr i8, ptr %0, i64 68
  %.val4761 = load i32, ptr %21, align 4, !tbaa !3
  %22 = icmp sgt i32 %.val4761, 0
  br i1 %22, label %.lr.ph63, label %.critedge6

.lr.ph63:                                         ; preds = %.critedge2.preheader
  %23 = getelementptr i8, ptr %0, i64 72
  %.val40 = load ptr, ptr %23, align 8, !tbaa !10
  %24 = getelementptr i8, ptr %1, i64 8
  br label %50

25:                                               ; preds = %.lr.ph60, %.critedge4
  %indvars.iv68 = phi i64 [ 0, %.lr.ph60 ], [ %indvars.iv.next69, %.critedge4 ]
  %.val44 = load ptr, ptr %17, align 8, !tbaa !10
  %.val45 = load ptr, ptr %18, align 8, !tbaa !10
  %26 = getelementptr inbounds nuw i32, ptr %.val45, i64 %indvars.iv68
  %27 = load i32, ptr %26, align 4, !tbaa !11
  %28 = sext i32 %27 to i64
  %29 = getelementptr inbounds i32, ptr %.val44, i64 %28
  %30 = load i32, ptr %29, align 4, !tbaa !11
  %31 = add nsw i32 %30, -2
  store i32 %31, ptr @Psr_BoxSignals.V, align 8, !tbaa !12
  store i32 %31, ptr getelementptr inbounds nuw (i8, ptr @Psr_BoxSignals.V, i64 4), align 4, !tbaa !3
  %32 = load i32, ptr %26, align 4, !tbaa !11
  %33 = sext i32 %32 to i64
  %34 = getelementptr i32, ptr %.val44, i64 %33
  %35 = getelementptr i8, ptr %34, i64 12
  store ptr %35, ptr getelementptr inbounds nuw (i8, ptr @Psr_BoxSignals.V, i64 8), align 8, !tbaa !10
  %36 = icmp sgt i32 %30, 3
  br i1 %36, label %.lr.ph57, label %.critedge4

.lr.ph57:                                         ; preds = %25
  %.val49 = load ptr, ptr %20, align 8, !tbaa !10
  br label %37

37:                                               ; preds = %.lr.ph57, %37
  %indvars.iv65 = phi i64 [ 0, %.lr.ph57 ], [ %indvars.iv.next66, %37 ]
  %38 = or disjoint i64 %indvars.iv65, 1
  %39 = getelementptr inbounds nuw i32, ptr %35, i64 %38
  %40 = load i32, ptr %39, align 4, !tbaa !11
  %.val51 = load i8, ptr %19, align 4
  %41 = and i8 %.val51, 2
  %42 = zext nneg i8 %41 to i32
  %spec.select.i = ashr i32 %40, %42
  %43 = sext i32 %spec.select.i to i64
  %44 = getelementptr inbounds i32, ptr %.val49, i64 %43
  store i32 -1, ptr %44, align 4, !tbaa !11
  %indvars.iv.next66 = add nuw nsw i64 %indvars.iv65, 2
  %45 = or disjoint i64 %indvars.iv.next66, 1
  %Psr_BoxSignals.V.val = load i32, ptr getelementptr inbounds nuw (i8, ptr @Psr_BoxSignals.V, i64 4), align 4, !tbaa !3
  %46 = sext i32 %Psr_BoxSignals.V.val to i64
  %47 = icmp slt i64 %45, %46
  br i1 %47, label %37, label %.critedge4, !llvm.loop !37

.critedge4:                                       ; preds = %37, %25
  %indvars.iv.next69 = add nuw nsw i64 %indvars.iv68, 1
  %.val = load i32, ptr %15, align 4, !tbaa !3
  %48 = sext i32 %.val to i64
  %49 = icmp slt i64 %indvars.iv.next69, %48
  br i1 %49, label %25, label %.critedge2.preheader, !llvm.loop !38

50:                                               ; preds = %.lr.ph63, %.critedge2
  %indvars.iv71 = phi i64 [ 0, %.lr.ph63 ], [ %indvars.iv.next72, %.critedge2 ]
  %51 = getelementptr inbounds nuw i32, ptr %.val40, i64 %indvars.iv71
  %52 = load i32, ptr %51, align 4, !tbaa !11
  %.not39 = icmp eq i32 %52, 0
  br i1 %.not39, label %.critedge6, label %.critedge2

.critedge2:                                       ; preds = %50
  %.val48 = load ptr, ptr %24, align 8, !tbaa !10
  %53 = sext i32 %52 to i64
  %54 = getelementptr inbounds i32, ptr %.val48, i64 %53
  store i32 -1, ptr %54, align 4, !tbaa !11
  %indvars.iv.next72 = add nuw nsw i64 %indvars.iv71, 1
  %.val47 = load i32, ptr %21, align 4, !tbaa !3
  %55 = sext i32 %.val47 to i64
  %56 = icmp slt i64 %indvars.iv.next72, %55
  br i1 %56, label %50, label %.critedge6, !llvm.loop !39

.critedge6:                                       ; preds = %50, %.critedge2, %.critedge2.preheader
  ret void
}